; Function Attrs: mustprogress uwtable
define hidden void @_ZN3smt17theory_array_base12assert_axiomEN3sat7literalE(ptr nocapture noundef nonnull readonly align 8 dereferenceable(249) %this, i32 %l.coerce) local_unnamed_addr #3 align 2 {
entry:
  %l = alloca %"class.sat::literal", align 4
  store i32 %l.coerce, ptr %l, align 4
  %ctx.i = getelementptr inbounds i8, ptr %this, i64 16
  %0 = load ptr, ptr %ctx.i, align 8
  %m_id.i.i = getelementptr inbounds i8, ptr %this, i64 8
  %1 = load i32, ptr %m_id.i.i, align 8
  call void @_ZN3smt7context12mk_th_clauseEijPN3sat7literalEjP9parameterNS_11clause_kindE(ptr noundef nonnull align 8 dereferenceable(11616) %0, i32 noundef %1, i32 noundef 1, ptr noundef nonnull %l, i32 noundef 0, ptr noundef null, i32 noundef 1)
  ret void
}